; ModuleID = 'obj2.cpp'
source_filename = "obj2.cpp"
target datalayout = "e-m:w-p270:32:32-p271:32:32-p272:64:64-i64:64-f80:128-n8:16:32:64-S128"
target triple = "x86_64-w64-windows-gnu"

%"class.std::ios_base::Init" = type { i8 }
%"class.std::basic_ostream" = type { i32 (...)**, %"class.std::basic_ios" }
%"class.std::basic_ios" = type { %"class.std::ios_base", %"class.std::basic_ostream"*, i8, i8, %"class.std::basic_streambuf"*, %"class.std::ctype"*, %"class.std::num_put"*, %"class.std::num_get"* }
%"class.std::ios_base" = type { i32 (...)**, i64, i64, i32, i32, i32, %"struct.std::ios_base::_Callback_list"*, %"struct.std::ios_base::_Words", [8 x %"struct.std::ios_base::_Words"], i32, %"struct.std::ios_base::_Words"*, %"class.std::locale" }
%"struct.std::ios_base::_Callback_list" = type { %"struct.std::ios_base::_Callback_list"*, void (i32, %"class.std::ios_base"*, i32)*, i32, i32 }
%"struct.std::ios_base::_Words" = type <{ i8*, i32, [4 x i8] }>
%"class.std::locale" = type { %"class.std::locale::_Impl"* }
%"class.std::locale::_Impl" = type { i32, %"class.std::locale::facet"**, i64, %"class.std::locale::facet"**, i8** }
%"class.std::locale::facet" = type <{ i32 (...)**, i32, [4 x i8] }>
%"class.std::basic_streambuf" = type { i32 (...)**, i8*, i8*, i8*, i8*, i8*, i8*, %"class.std::locale" }
%"class.std::ctype" = type <{ %"class.std::locale::facet.base", [4 x i8], i32*, i8, [7 x i8], i32*, i32*, i16*, i8, [256 x i8], [256 x i8], i8, [6 x i8] }>
%"class.std::locale::facet.base" = type <{ i32 (...)**, i32 }>
%"class.std::num_put" = type { %"class.std::locale::facet.base", [4 x i8] }
%"class.std::num_get" = type { %"class.std::locale::facet.base", [4 x i8] }
%class.Person = type { i32, %"class.std::__cxx11::basic_string" }
%"class.std::__cxx11::basic_string" = type { %"struct.std::__cxx11::basic_string<char>::_Alloc_hider", i64, %union.anon }
%"struct.std::__cxx11::basic_string<char>::_Alloc_hider" = type { i8* }
%union.anon = type { i64, [8 x i8] }
%"class.std::allocator" = type { i8 }

$_ZN6PersonC2Ev = comdat any

$_ZN6Person3strB5cxx11Ev = comdat any

$_ZN6PersonD2Ev = comdat any

$_ZStplIcSt11char_traitsIcESaIcEENSt7__cxx1112basic_stringIT_T0_T1_EEOS8_S9_ = comdat any

$_ZStplIcSt11char_traitsIcESaIcEENSt7__cxx1112basic_stringIT_T0_T1_EEOS8_PKS5_ = comdat any

$_ZStplIcSt11char_traitsIcESaIcEENSt7__cxx1112basic_stringIT_T0_T1_EEPKS5_RKS8_ = comdat any

$_ZNSt7__cxx119to_stringEi = comdat any

$_ZSt4moveIRNSt7__cxx1112basic_stringIcSt11char_traitsIcESaIcEEEEONSt16remove_referenceIT_E4typeEOS8_ = comdat any

$_ZNSt11char_traitsIcE6lengthEPKc = comdat any

$_ZN9__gnu_cxx14__alloc_traitsISaIcEcE17_S_select_on_copyERKS1_ = comdat any

$_ZNSt16allocator_traitsISaIcEE37select_on_container_copy_constructionERKS0_ = comdat any

$_ZNSt8__detail14__to_chars_lenIjEEjT_i = comdat any

$_ZNSt8__detail18__to_chars_10_implIjEEvPcjT_ = comdat any

$_ZZNSt8__detail18__to_chars_10_implIjEEvPcjT_E8__digits = comdat any

@_ZStL8__ioinit = internal global %"class.std::ios_base::Init" zeroinitializer, align 1
@.str = private unnamed_addr constant [4 x i8] c"ccc\00", align 1
@_ZSt4cout = external global %"class.std::basic_ostream", align 8
@.str.1 = private unnamed_addr constant [6 x i8] c"name=\00", align 1
@.str.2 = private unnamed_addr constant [6 x i8] c" age=\00", align 1
@_ZZNSt8__detail18__to_chars_10_implIjEEvPcjT_E8__digits = linkonce_odr dso_local constant [201 x i8] c"00010203040506070809101112131415161718192021222324252627282930313233343536373839404142434445464748495051525354555657585960616263646566676869707172737475767778798081828384858687888990919293949596979899\00", comdat, align 16
@llvm.global_ctors = appending global [1 x { i32, void ()*, i8* }] [{ i32, void ()*, i8* } { i32 65535, void ()* @_GLOBAL__sub_I_obj2.cpp, i8* null }]

; Function Attrs: noinline uwtable
define internal void @__cxx_global_var_init() #0 {
  call void @_ZNSt8ios_base4InitC1Ev(%"class.std::ios_base::Init"* nonnull dereferenceable(1) @_ZStL8__ioinit)
  %1 = call i32 @atexit(void ()* @__dtor__ZStL8__ioinit) #3
  ret void
}

declare dso_local void @_ZNSt8ios_base4InitC1Ev(%"class.std::ios_base::Init"* nonnull dereferenceable(1)) unnamed_addr #1

; Function Attrs: nounwind
declare dso_local void @_ZNSt8ios_base4InitD1Ev(%"class.std::ios_base::Init"* nonnull dereferenceable(1)) unnamed_addr #2

; Function Attrs: noinline uwtable
define internal void @__dtor__ZStL8__ioinit() #0 {
  call void @_ZNSt8ios_base4InitD1Ev(%"class.std::ios_base::Init"* @_ZStL8__ioinit)
  ret void
}

; Function Attrs: nounwind
declare dso_local i32 @atexit(void ()*) #3

; Function Attrs: noinline norecurse optnone uwtable mustprogress
define dso_local i32 @main() #4 personality i8* bitcast (i32 (...)* @__gxx_personality_seh0 to i8*) {
  %1 = alloca i32, align 4
  %2 = alloca %class.Person, align 8
  %3 = alloca i8*, align 8
  %4 = alloca i32, align 4
  %5 = alloca %"class.std::__cxx11::basic_string", align 8
  store i32 0, i32* %1, align 4
  call void @_ZN6PersonC2Ev(%class.Person* nonnull dereferenceable(40) %2) #3
  %6 = getelementptr inbounds %class.Person, %class.Person* %2, i32 0, i32 0
  store i32 52, i32* %6, align 8
  %7 = getelementptr inbounds %class.Person, %class.Person* %2, i32 0, i32 1
  %8 = invoke nonnull align 8 dereferenceable(32) %"class.std::__cxx11::basic_string"* @_ZNSt7__cxx1112basic_stringIcSt11char_traitsIcESaIcEEaSEPKc(%"class.std::__cxx11::basic_string"* nonnull dereferenceable(32) %7, i8* getelementptr inbounds ([4 x i8], [4 x i8]* @.str, i64 0, i64 0))
          to label %9 unwind label %14

9:                                                ; preds = %0
  invoke void @_ZN6Person3strB5cxx11Ev(%"class.std::__cxx11::basic_string"* sret(%"class.std::__cxx11::basic_string") align 8 %5, %class.Person* nonnull dereferenceable(40) %2)
          to label %10 unwind label %14

10:                                               ; preds = %9
  %11 = invoke nonnull align 8 dereferenceable(8) %"class.std::basic_ostream"* @_ZStlsIcSt11char_traitsIcESaIcEERSt13basic_ostreamIT_T0_ES7_RKNSt7__cxx1112basic_stringIS4_S5_T1_EE(%"class.std::basic_ostream"* nonnull align 8 dereferenceable(8) @_ZSt4cout, %"class.std::__cxx11::basic_string"* nonnull align 8 dereferenceable(32) %5)
          to label %12 unwind label %18

12:                                               ; preds = %10
  call void @_ZNSt7__cxx1112basic_stringIcSt11char_traitsIcESaIcEED1Ev(%"class.std::__cxx11::basic_string"* nonnull dereferenceable(32) %5) #3
  store i32 0, i32* %1, align 4
  call void @_ZN6PersonD2Ev(%class.Person* nonnull dereferenceable(40) %2) #3
  %13 = load i32, i32* %1, align 4
  ret i32 %13

14:                                               ; preds = %9, %0
  %15 = landingpad { i8*, i32 }
          cleanup
  %16 = extractvalue { i8*, i32 } %15, 0
  store i8* %16, i8** %3, align 8
  %17 = extractvalue { i8*, i32 } %15, 1
  store i32 %17, i32* %4, align 4
  br label %22

18:                                               ; preds = %10
  %19 = landingpad { i8*, i32 }
          cleanup
  %20 = extractvalue { i8*, i32 } %19, 0
  store i8* %20, i8** %3, align 8
  %21 = extractvalue { i8*, i32 } %19, 1
  store i32 %21, i32* %4, align 4
  call void @_ZNSt7__cxx1112basic_stringIcSt11char_traitsIcESaIcEED1Ev(%"class.std::__cxx11::basic_string"* nonnull dereferenceable(32) %5) #3
  br label %22

22:                                               ; preds = %18, %14
  call void @_ZN6PersonD2Ev(%class.Person* nonnull dereferenceable(40) %2) #3
  br label %23

23:                                               ; preds = %22
  %24 = load i8*, i8** %3, align 8
  %25 = load i32, i32* %4, align 4
  %26 = insertvalue { i8*, i32 } undef, i8* %24, 0
  %27 = insertvalue { i8*, i32 } %26, i32 %25, 1
  resume { i8*, i32 } %27
}

; Function Attrs: noinline nounwind optnone uwtable
define linkonce_odr dso_local void @_ZN6PersonC2Ev(%class.Person* nonnull dereferenceable(40) %0) unnamed_addr #5 comdat align 2 {
  %2 = alloca %class.Person*, align 8
  store %class.Person* %0, %class.Person** %2, align 8
  %3 = load %class.Person*, %class.Person** %2, align 8
  %4 = getelementptr inbounds %class.Person, %class.Person* %3, i32 0, i32 1
  call void @_ZNSt7__cxx1112basic_stringIcSt11char_traitsIcESaIcEEC1Ev(%"class.std::__cxx11::basic_string"* nonnull dereferenceable(32) %4) #3
  ret void
}

declare dso_local nonnull align 8 dereferenceable(32) %"class.std::__cxx11::basic_string"* @_ZNSt7__cxx1112basic_stringIcSt11char_traitsIcESaIcEEaSEPKc(%"class.std::__cxx11::basic_string"* nonnull dereferenceable(32), i8*) #1

declare dso_local i32 @__gxx_personality_seh0(...)

declare dso_local nonnull align 8 dereferenceable(8) %"class.std::basic_ostream"* @_ZStlsIcSt11char_traitsIcESaIcEERSt13basic_ostreamIT_T0_ES7_RKNSt7__cxx1112basic_stringIS4_S5_T1_EE(%"class.std::basic_ostream"* nonnull align 8 dereferenceable(8), %"class.std::__cxx11::basic_string"* nonnull align 8 dereferenceable(32)) #1

; Function Attrs: noinline optnone uwtable mustprogress
define linkonce_odr dso_local void @_ZN6Person3strB5cxx11Ev(%"class.std::__cxx11::basic_string"* noalias sret(%"class.std::__cxx11::basic_string") align 8 %0, %class.Person* nonnull dereferenceable(40) %1) #6 comdat align 2 personality i8* bitcast (i32 (...)* @__gxx_personality_seh0 to i8*) {
  %3 = alloca i8*, align 8
  %4 = alloca %class.Person*, align 8
  %5 = alloca %"class.std::__cxx11::basic_string", align 8
  %6 = alloca %"class.std::__cxx11::basic_string", align 8
  %7 = alloca i8*, align 8
  %8 = alloca i32, align 4
  %9 = alloca %"class.std::__cxx11::basic_string", align 8
  %10 = bitcast %"class.std::__cxx11::basic_string"* %0 to i8*
  store i8* %10, i8** %3, align 8
  store %class.Person* %1, %class.Person** %4, align 8
  %11 = load %class.Person*, %class.Person** %4, align 8
  %12 = getelementptr inbounds %class.Person, %class.Person* %11, i32 0, i32 1
  call void @_ZStplIcSt11char_traitsIcESaIcEENSt7__cxx1112basic_stringIT_T0_T1_EEPKS5_RKS8_(%"class.std::__cxx11::basic_string"* sret(%"class.std::__cxx11::basic_string") align 8 %6, i8* getelementptr inbounds ([6 x i8], [6 x i8]* @.str.1, i64 0, i64 0), %"class.std::__cxx11::basic_string"* nonnull align 8 dereferenceable(32) %12)
  invoke void @_ZStplIcSt11char_traitsIcESaIcEENSt7__cxx1112basic_stringIT_T0_T1_EEOS8_PKS5_(%"class.std::__cxx11::basic_string"* sret(%"class.std::__cxx11::basic_string") align 8 %5, %"class.std::__cxx11::basic_string"* nonnull align 8 dereferenceable(32) %6, i8* getelementptr inbounds ([6 x i8], [6 x i8]* @.str.2, i64 0, i64 0))
          to label %13 unwind label %18

13:                                               ; preds = %2
  %14 = getelementptr inbounds %class.Person, %class.Person* %11, i32 0, i32 0
  %15 = load i32, i32* %14, align 8
  invoke void @_ZNSt7__cxx119to_stringEi(%"class.std::__cxx11::basic_string"* sret(%"class.std::__cxx11::basic_string") align 8 %9, i32 %15)
          to label %16 unwind label %22

16:                                               ; preds = %13
  invoke void @_ZStplIcSt11char_traitsIcESaIcEENSt7__cxx1112basic_stringIT_T0_T1_EEOS8_S9_(%"class.std::__cxx11::basic_string"* sret(%"class.std::__cxx11::basic_string") align 8 %0, %"class.std::__cxx11::basic_string"* nonnull align 8 dereferenceable(32) %5, %"class.std::__cxx11::basic_string"* nonnull align 8 dereferenceable(32) %9)
          to label %17 unwind label %26

17:                                               ; preds = %16
  call void @_ZNSt7__cxx1112basic_stringIcSt11char_traitsIcESaIcEED1Ev(%"class.std::__cxx11::basic_string"* nonnull dereferenceable(32) %9) #3
  call void @_ZNSt7__cxx1112basic_stringIcSt11char_traitsIcESaIcEED1Ev(%"class.std::__cxx11::basic_string"* nonnull dereferenceable(32) %5) #3
  call void @_ZNSt7__cxx1112basic_stringIcSt11char_traitsIcESaIcEED1Ev(%"class.std::__cxx11::basic_string"* nonnull dereferenceable(32) %6) #3
  ret void

18:                                               ; preds = %2
  %19 = landingpad { i8*, i32 }
          cleanup
  %20 = extractvalue { i8*, i32 } %19, 0
  store i8* %20, i8** %7, align 8
  %21 = extractvalue { i8*, i32 } %19, 1
  store i32 %21, i32* %8, align 4
  br label %31

22:                                               ; preds = %13
  %23 = landingpad { i8*, i32 }
          cleanup
  %24 = extractvalue { i8*, i32 } %23, 0
  store i8* %24, i8** %7, align 8
  %25 = extractvalue { i8*, i32 } %23, 1
  store i32 %25, i32* %8, align 4
  br label %30

26:                                               ; preds = %16
  %27 = landingpad { i8*, i32 }
          cleanup
  %28 = extractvalue { i8*, i32 } %27, 0
  store i8* %28, i8** %7, align 8
  %29 = extractvalue { i8*, i32 } %27, 1
  store i32 %29, i32* %8, align 4
  call void @_ZNSt7__cxx1112basic_stringIcSt11char_traitsIcESaIcEED1Ev(%"class.std::__cxx11::basic_string"* nonnull dereferenceable(32) %9) #3
  br label %30

30:                                               ; preds = %26, %22
  call void @_ZNSt7__cxx1112basic_stringIcSt11char_traitsIcESaIcEED1Ev(%"class.std::__cxx11::basic_string"* nonnull dereferenceable(32) %5) #3
  br label %31

31:                                               ; preds = %30, %18
  call void @_ZNSt7__cxx1112basic_stringIcSt11char_traitsIcESaIcEED1Ev(%"class.std::__cxx11::basic_string"* nonnull dereferenceable(32) %6) #3
  br label %32

32:                                               ; preds = %31
  %33 = load i8*, i8** %7, align 8
  %34 = load i32, i32* %8, align 4
  %35 = insertvalue { i8*, i32 } undef, i8* %33, 0
  %36 = insertvalue { i8*, i32 } %35, i32 %34, 1
  resume { i8*, i32 } %36
}

; Function Attrs: nounwind
declare dso_local void @_ZNSt7__cxx1112basic_stringIcSt11char_traitsIcESaIcEED1Ev(%"class.std::__cxx11::basic_string"* nonnull dereferenceable(32)) unnamed_addr #2

; Function Attrs: noinline nounwind optnone uwtable
define linkonce_odr dso_local void @_ZN6PersonD2Ev(%class.Person* nonnull dereferenceable(40) %0) unnamed_addr #5 comdat align 2 {
  %2 = alloca %class.Person*, align 8
  store %class.Person* %0, %class.Person** %2, align 8
  %3 = load %class.Person*, %class.Person** %2, align 8
  %4 = getelementptr inbounds %class.Person, %class.Person* %3, i32 0, i32 1
  call void @_ZNSt7__cxx1112basic_stringIcSt11char_traitsIcESaIcEED1Ev(%"class.std::__cxx11::basic_string"* nonnull dereferenceable(32) %4) #3
  ret void
}

; Function Attrs: nounwind
declare dso_local void @_ZNSt7__cxx1112basic_stringIcSt11char_traitsIcESaIcEEC1Ev(%"class.std::__cxx11::basic_string"* nonnull dereferenceable(32)) unnamed_addr #2

; Function Attrs: noinline optnone uwtable mustprogress
define linkonce_odr dso_local void @_ZStplIcSt11char_traitsIcESaIcEENSt7__cxx1112basic_stringIT_T0_T1_EEOS8_S9_(%"class.std::__cxx11::basic_string"* noalias sret(%"class.std::__cxx11::basic_string") align 8 %0, %"class.std::__cxx11::basic_string"* nonnull align 8 dereferenceable(32) %1, %"class.std::__cxx11::basic_string"* nonnull align 8 dereferenceable(32) %2) #6 comdat {
  %4 = alloca i8*, align 8
  %5 = alloca %"class.std::__cxx11::basic_string"*, align 8
  %6 = alloca %"class.std::__cxx11::basic_string"*, align 8
  %7 = alloca i8, align 1
  %8 = alloca i64, align 8
  %9 = bitcast %"class.std::__cxx11::basic_string"* %0 to i8*
  store i8* %9, i8** %4, align 8
  store %"class.std::__cxx11::basic_string"* %1, %"class.std::__cxx11::basic_string"** %5, align 8
  store %"class.std::__cxx11::basic_string"* %2, %"class.std::__cxx11::basic_string"** %6, align 8
  store i8 0, i8* %7, align 1
  store i8 1, i8* %7, align 1
  %10 = load i8, i8* %7, align 1
  %11 = trunc i8 %10 to i1
  br i1 %11, label %12, label %33

12:                                               ; preds = %3
  %13 = load %"class.std::__cxx11::basic_string"*, %"class.std::__cxx11::basic_string"** %5, align 8
  %14 = call i64 @_ZNKSt7__cxx1112basic_stringIcSt11char_traitsIcESaIcEE4sizeEv(%"class.std::__cxx11::basic_string"* nonnull dereferenceable(32) %13) #3
  %15 = load %"class.std::__cxx11::basic_string"*, %"class.std::__cxx11::basic_string"** %6, align 8
  %16 = call i64 @_ZNKSt7__cxx1112basic_stringIcSt11char_traitsIcESaIcEE4sizeEv(%"class.std::__cxx11::basic_string"* nonnull dereferenceable(32) %15) #3
  %17 = add i64 %14, %16
  store i64 %17, i64* %8, align 8
  %18 = load i64, i64* %8, align 8
  %19 = load %"class.std::__cxx11::basic_string"*, %"class.std::__cxx11::basic_string"** %5, align 8
  %20 = call i64 @_ZNKSt7__cxx1112basic_stringIcSt11char_traitsIcESaIcEE8capacityEv(%"class.std::__cxx11::basic_string"* nonnull dereferenceable(32) %19) #3
  %21 = icmp ugt i64 %18, %20
  br i1 %21, label %22, label %32

22:                                               ; preds = %12
  %23 = load i64, i64* %8, align 8
  %24 = load %"class.std::__cxx11::basic_string"*, %"class.std::__cxx11::basic_string"** %6, align 8
  %25 = call i64 @_ZNKSt7__cxx1112basic_stringIcSt11char_traitsIcESaIcEE8capacityEv(%"class.std::__cxx11::basic_string"* nonnull dereferenceable(32) %24) #3
  %26 = icmp ule i64 %23, %25
  br i1 %26, label %27, label %32

27:                                               ; preds = %22
  %28 = load %"class.std::__cxx11::basic_string"*, %"class.std::__cxx11::basic_string"** %6, align 8
  %29 = load %"class.std::__cxx11::basic_string"*, %"class.std::__cxx11::basic_string"** %5, align 8
  %30 = call nonnull align 8 dereferenceable(32) %"class.std::__cxx11::basic_string"* @_ZNSt7__cxx1112basic_stringIcSt11char_traitsIcESaIcEE6insertEyRKS4_(%"class.std::__cxx11::basic_string"* nonnull dereferenceable(32) %28, i64 0, %"class.std::__cxx11::basic_string"* nonnull align 8 dereferenceable(32) %29)
  %31 = call nonnull align 8 dereferenceable(32) %"class.std::__cxx11::basic_string"* @_ZSt4moveIRNSt7__cxx1112basic_stringIcSt11char_traitsIcESaIcEEEEONSt16remove_referenceIT_E4typeEOS8_(%"class.std::__cxx11::basic_string"* nonnull align 8 dereferenceable(32) %30) #3
  call void @_ZNSt7__cxx1112basic_stringIcSt11char_traitsIcESaIcEEC1EOS4_(%"class.std::__cxx11::basic_string"* nonnull dereferenceable(32) %0, %"class.std::__cxx11::basic_string"* nonnull align 8 dereferenceable(32) %31) #3
  br label %38

32:                                               ; preds = %22, %12
  br label %33

33:                                               ; preds = %32, %3
  %34 = load %"class.std::__cxx11::basic_string"*, %"class.std::__cxx11::basic_string"** %5, align 8
  %35 = load %"class.std::__cxx11::basic_string"*, %"class.std::__cxx11::basic_string"** %6, align 8
  %36 = call nonnull align 8 dereferenceable(32) %"class.std::__cxx11::basic_string"* @_ZNSt7__cxx1112basic_stringIcSt11char_traitsIcESaIcEE6appendERKS4_(%"class.std::__cxx11::basic_string"* nonnull dereferenceable(32) %34, %"class.std::__cxx11::basic_string"* nonnull align 8 dereferenceable(32) %35)
  %37 = call nonnull align 8 dereferenceable(32) %"class.std::__cxx11::basic_string"* @_ZSt4moveIRNSt7__cxx1112basic_stringIcSt11char_traitsIcESaIcEEEEONSt16remove_referenceIT_E4typeEOS8_(%"class.std::__cxx11::basic_string"* nonnull align 8 dereferenceable(32) %36) #3
  call void @_ZNSt7__cxx1112basic_stringIcSt11char_traitsIcESaIcEEC1EOS4_(%"class.std::__cxx11::basic_string"* nonnull dereferenceable(32) %0, %"class.std::__cxx11::basic_string"* nonnull align 8 dereferenceable(32) %37) #3
  br label %38

38:                                               ; preds = %33, %27
  ret void
}

; Function Attrs: noinline optnone uwtable mustprogress
define linkonce_odr dso_local void @_ZStplIcSt11char_traitsIcESaIcEENSt7__cxx1112basic_stringIT_T0_T1_EEOS8_PKS5_(%"class.std::__cxx11::basic_string"* noalias sret(%"class.std::__cxx11::basic_string") align 8 %0, %"class.std::__cxx11::basic_string"* nonnull align 8 dereferenceable(32) %1, i8* %2) #6 comdat {
  %4 = alloca i8*, align 8
  %5 = alloca %"class.std::__cxx11::basic_string"*, align 8
  %6 = alloca i8*, align 8
  %7 = bitcast %"class.std::__cxx11::basic_string"* %0 to i8*
  store i8* %7, i8** %4, align 8
  store %"class.std::__cxx11::basic_string"* %1, %"class.std::__cxx11::basic_string"** %5, align 8
  store i8* %2, i8** %6, align 8
  %8 = load %"class.std::__cxx11::basic_string"*, %"class.std::__cxx11::basic_string"** %5, align 8
  %9 = load i8*, i8** %6, align 8
  %10 = call nonnull align 8 dereferenceable(32) %"class.std::__cxx11::basic_string"* @_ZNSt7__cxx1112basic_stringIcSt11char_traitsIcESaIcEE6appendEPKc(%"class.std::__cxx11::basic_string"* nonnull dereferenceable(32) %8, i8* %9)
  %11 = call nonnull align 8 dereferenceable(32) %"class.std::__cxx11::basic_string"* @_ZSt4moveIRNSt7__cxx1112basic_stringIcSt11char_traitsIcESaIcEEEEONSt16remove_referenceIT_E4typeEOS8_(%"class.std::__cxx11::basic_string"* nonnull align 8 dereferenceable(32) %10) #3
  call void @_ZNSt7__cxx1112basic_stringIcSt11char_traitsIcESaIcEEC1EOS4_(%"class.std::__cxx11::basic_string"* nonnull dereferenceable(32) %0, %"class.std::__cxx11::basic_string"* nonnull align 8 dereferenceable(32) %11) #3
  ret void
}

; Function Attrs: noinline optnone uwtable mustprogress
define linkonce_odr dso_local void @_ZStplIcSt11char_traitsIcESaIcEENSt7__cxx1112basic_stringIT_T0_T1_EEPKS5_RKS8_(%"class.std::__cxx11::basic_string"* noalias sret(%"class.std::__cxx11::basic_string") align 8 %0, i8* %1, %"class.std::__cxx11::basic_string"* nonnull align 8 dereferenceable(32) %2) #6 comdat personality i8* bitcast (i32 (...)* @__gxx_personality_seh0 to i8*) {
  %4 = alloca i8*, align 8
  %5 = alloca i8*, align 8
  %6 = alloca %"class.std::__cxx11::basic_string"*, align 8
  %7 = alloca i64, align 8
  %8 = alloca i1, align 1
  %9 = alloca %"class.std::allocator", align 1
  %10 = alloca %"class.std::allocator", align 1
  %11 = alloca i8*, align 8
  %12 = alloca i32, align 4
  %13 = bitcast %"class.std::__cxx11::basic_string"* %0 to i8*
  store i8* %13, i8** %4, align 8
  store i8* %1, i8** %5, align 8
  store %"class.std::__cxx11::basic_string"* %2, %"class.std::__cxx11::basic_string"** %6, align 8
  %14 = load i8*, i8** %5, align 8
  %15 = call i64 @_ZNSt11char_traitsIcE6lengthEPKc(i8* %14)
  store i64 %15, i64* %7, align 8
  store i1 false, i1* %8, align 1
  %16 = load %"class.std::__cxx11::basic_string"*, %"class.std::__cxx11::basic_string"** %6, align 8
  call void @_ZNKSt7__cxx1112basic_stringIcSt11char_traitsIcESaIcEE13get_allocatorEv(%"class.std::allocator"* sret(%"class.std::allocator") align 1 %10, %"class.std::__cxx11::basic_string"* nonnull dereferenceable(32) %16) #3
  invoke void @_ZN9__gnu_cxx14__alloc_traitsISaIcEcE17_S_select_on_copyERKS1_(%"class.std::allocator"* sret(%"class.std::allocator") align 1 %9, %"class.std::allocator"* nonnull align 1 dereferenceable(1) %10)
          to label %17 unwind label %31

17:                                               ; preds = %3
  call void @_ZNSt7__cxx1112basic_stringIcSt11char_traitsIcESaIcEEC1ERKS3_(%"class.std::__cxx11::basic_string"* nonnull dereferenceable(32) %0, %"class.std::allocator"* nonnull align 1 dereferenceable(1) %9) #3
  call void @_ZNSaIcED1Ev(%"class.std::allocator"* nonnull dereferenceable(1) %9) #3
  call void @_ZNSaIcED1Ev(%"class.std::allocator"* nonnull dereferenceable(1) %10) #3
  %18 = load i64, i64* %7, align 8
  %19 = load %"class.std::__cxx11::basic_string"*, %"class.std::__cxx11::basic_string"** %6, align 8
  %20 = call i64 @_ZNKSt7__cxx1112basic_stringIcSt11char_traitsIcESaIcEE4sizeEv(%"class.std::__cxx11::basic_string"* nonnull dereferenceable(32) %19) #3
  %21 = add i64 %18, %20
  invoke void @_ZNSt7__cxx1112basic_stringIcSt11char_traitsIcESaIcEE7reserveEy(%"class.std::__cxx11::basic_string"* nonnull dereferenceable(32) %0, i64 %21)
          to label %22 unwind label %35

22:                                               ; preds = %17
  %23 = load i8*, i8** %5, align 8
  %24 = load i64, i64* %7, align 8
  %25 = invoke nonnull align 8 dereferenceable(32) %"class.std::__cxx11::basic_string"* @_ZNSt7__cxx1112basic_stringIcSt11char_traitsIcESaIcEE6appendEPKcy(%"class.std::__cxx11::basic_string"* nonnull dereferenceable(32) %0, i8* %23, i64 %24)
          to label %26 unwind label %35

26:                                               ; preds = %22
  %27 = load %"class.std::__cxx11::basic_string"*, %"class.std::__cxx11::basic_string"** %6, align 8
  %28 = invoke nonnull align 8 dereferenceable(32) %"class.std::__cxx11::basic_string"* @_ZNSt7__cxx1112basic_stringIcSt11char_traitsIcESaIcEE6appendERKS4_(%"class.std::__cxx11::basic_string"* nonnull dereferenceable(32) %0, %"class.std::__cxx11::basic_string"* nonnull align 8 dereferenceable(32) %27)
          to label %29 unwind label %35

29:                                               ; preds = %26
  store i1 true, i1* %8, align 1
  %30 = load i1, i1* %8, align 1
  br i1 %30, label %40, label %39

31:                                               ; preds = %3
  %32 = landingpad { i8*, i32 }
          cleanup
  %33 = extractvalue { i8*, i32 } %32, 0
  store i8* %33, i8** %11, align 8
  %34 = extractvalue { i8*, i32 } %32, 1
  store i32 %34, i32* %12, align 4
  call void @_ZNSaIcED1Ev(%"class.std::allocator"* nonnull dereferenceable(1) %10) #3
  br label %41

35:                                               ; preds = %26, %22, %17
  %36 = landingpad { i8*, i32 }
          cleanup
  %37 = extractvalue { i8*, i32 } %36, 0
  store i8* %37, i8** %11, align 8
  %38 = extractvalue { i8*, i32 } %36, 1
  store i32 %38, i32* %12, align 4
  call void @_ZNSt7__cxx1112basic_stringIcSt11char_traitsIcESaIcEED1Ev(%"class.std::__cxx11::basic_string"* nonnull dereferenceable(32) %0) #3
  br label %41

39:                                               ; preds = %29
  call void @_ZNSt7__cxx1112basic_stringIcSt11char_traitsIcESaIcEED1Ev(%"class.std::__cxx11::basic_string"* nonnull dereferenceable(32) %0) #3
  br label %40

40:                                               ; preds = %39, %29
  ret void

41:                                               ; preds = %35, %31
  %42 = load i8*, i8** %11, align 8
  %43 = load i32, i32* %12, align 4
  %44 = insertvalue { i8*, i32 } undef, i8* %42, 0
  %45 = insertvalue { i8*, i32 } %44, i32 %43, 1
  resume { i8*, i32 } %45
}

; Function Attrs: noinline optnone uwtable mustprogress
define linkonce_odr dso_local void @_ZNSt7__cxx119to_stringEi(%"class.std::__cxx11::basic_string"* noalias sret(%"class.std::__cxx11::basic_string") align 8 %0, i32 %1) #6 comdat personality i8* bitcast (i32 (...)* @__gxx_personality_seh0 to i8*) {
  %3 = alloca i8*, align 8
  %4 = alloca i32, align 4
  %5 = alloca i8, align 1
  %6 = alloca i32, align 4
  %7 = alloca i32, align 4
  %8 = alloca i1, align 1
  %9 = alloca %"class.std::allocator", align 1
  %10 = alloca i8*, align 8
  %11 = alloca i32, align 4
  %12 = bitcast %"class.std::__cxx11::basic_string"* %0 to i8*
  store i8* %12, i8** %3, align 8
  store i32 %1, i32* %4, align 4
  %13 = load i32, i32* %4, align 4
  %14 = icmp slt i32 %13, 0
  %15 = zext i1 %14 to i8
  store i8 %15, i8* %5, align 1
  %16 = load i8, i8* %5, align 1
  %17 = trunc i8 %16 to i1
  br i1 %17, label %18, label %22

18:                                               ; preds = %2
  %19 = load i32, i32* %4, align 4
  %20 = xor i32 %19, -1
  %21 = add i32 %20, 1
  br label %24

22:                                               ; preds = %2
  %23 = load i32, i32* %4, align 4
  br label %24

24:                                               ; preds = %22, %18
  %25 = phi i32 [ %21, %18 ], [ %23, %22 ]
  store i32 %25, i32* %6, align 4
  %26 = load i32, i32* %6, align 4
  %27 = call i32 @_ZNSt8__detail14__to_chars_lenIjEEjT_i(i32 %26, i32 10) #3
  store i32 %27, i32* %7, align 4
  store i1 false, i1* %8, align 1
  %28 = load i8, i8* %5, align 1
  %29 = trunc i8 %28 to i1
  %30 = zext i1 %29 to i32
  %31 = load i32, i32* %7, align 4
  %32 = add i32 %30, %31
  %33 = zext i32 %32 to i64
  call void @_ZNSaIcEC1Ev(%"class.std::allocator"* nonnull dereferenceable(1) %9) #3
  invoke void @_ZNSt7__cxx1112basic_stringIcSt11char_traitsIcESaIcEEC1EycRKS3_(%"class.std::__cxx11::basic_string"* nonnull dereferenceable(32) %0, i64 %33, i8 45, %"class.std::allocator"* nonnull align 1 dereferenceable(1) %9)
          to label %34 unwind label %43

34:                                               ; preds = %24
  call void @_ZNSaIcED1Ev(%"class.std::allocator"* nonnull dereferenceable(1) %9) #3
  %35 = load i8, i8* %5, align 1
  %36 = trunc i8 %35 to i1
  %37 = zext i1 %36 to i64
  %38 = invoke nonnull align 1 dereferenceable(1) i8* @_ZNSt7__cxx1112basic_stringIcSt11char_traitsIcESaIcEEixEy(%"class.std::__cxx11::basic_string"* nonnull dereferenceable(32) %0, i64 %37)
          to label %39 unwind label %47

39:                                               ; preds = %34
  %40 = load i32, i32* %7, align 4
  %41 = load i32, i32* %6, align 4
  call void @_ZNSt8__detail18__to_chars_10_implIjEEvPcjT_(i8* %38, i32 %40, i32 %41) #3
  store i1 true, i1* %8, align 1
  %42 = load i1, i1* %8, align 1
  br i1 %42, label %52, label %51

43:                                               ; preds = %24
  %44 = landingpad { i8*, i32 }
          cleanup
  %45 = extractvalue { i8*, i32 } %44, 0
  store i8* %45, i8** %10, align 8
  %46 = extractvalue { i8*, i32 } %44, 1
  store i32 %46, i32* %11, align 4
  call void @_ZNSaIcED1Ev(%"class.std::allocator"* nonnull dereferenceable(1) %9) #3
  br label %53

47:                                               ; preds = %34
  %48 = landingpad { i8*, i32 }
          cleanup
  %49 = extractvalue { i8*, i32 } %48, 0
  store i8* %49, i8** %10, align 8
  %50 = extractvalue { i8*, i32 } %48, 1
  store i32 %50, i32* %11, align 4
  call void @_ZNSt7__cxx1112basic_stringIcSt11char_traitsIcESaIcEED1Ev(%"class.std::__cxx11::basic_string"* nonnull dereferenceable(32) %0) #3
  br label %53

51:                                               ; preds = %39
  call void @_ZNSt7__cxx1112basic_stringIcSt11char_traitsIcESaIcEED1Ev(%"class.std::__cxx11::basic_string"* nonnull dereferenceable(32) %0) #3
  br label %52

52:                                               ; preds = %51, %39
  ret void

53:                                               ; preds = %47, %43
  %54 = load i8*, i8** %10, align 8
  %55 = load i32, i32* %11, align 4
  %56 = insertvalue { i8*, i32 } undef, i8* %54, 0
  %57 = insertvalue { i8*, i32 } %56, i32 %55, 1
  resume { i8*, i32 } %57
}

; Function Attrs: nounwind
declare dso_local i64 @_ZNKSt7__cxx1112basic_stringIcSt11char_traitsIcESaIcEE4sizeEv(%"class.std::__cxx11::basic_string"* nonnull dereferenceable(32)) #2

; Function Attrs: nounwind
declare dso_local i64 @_ZNKSt7__cxx1112basic_stringIcSt11char_traitsIcESaIcEE8capacityEv(%"class.std::__cxx11::basic_string"* nonnull dereferenceable(32)) #2

; Function Attrs: noinline nounwind optnone uwtable mustprogress
define linkonce_odr dso_local nonnull align 8 dereferenceable(32) %"class.std::__cxx11::basic_string"* @_ZSt4moveIRNSt7__cxx1112basic_stringIcSt11char_traitsIcESaIcEEEEONSt16remove_referenceIT_E4typeEOS8_(%"class.std::__cxx11::basic_string"* nonnull align 8 dereferenceable(32) %0) #7 comdat {
  %2 = alloca %"class.std::__cxx11::basic_string"*, align 8
  store %"class.std::__cxx11::basic_string"* %0, %"class.std::__cxx11::basic_string"** %2, align 8
  %3 = load %"class.std::__cxx11::basic_string"*, %"class.std::__cxx11::basic_string"** %2, align 8
  ret %"class.std::__cxx11::basic_string"* %3
}

declare dso_local nonnull align 8 dereferenceable(32) %"class.std::__cxx11::basic_string"* @_ZNSt7__cxx1112basic_stringIcSt11char_traitsIcESaIcEE6insertEyRKS4_(%"class.std::__cxx11::basic_string"* nonnull dereferenceable(32), i64, %"class.std::__cxx11::basic_string"* nonnull align 8 dereferenceable(32)) #1

; Function Attrs: nounwind
declare dso_local void @_ZNSt7__cxx1112basic_stringIcSt11char_traitsIcESaIcEEC1EOS4_(%"class.std::__cxx11::basic_string"* nonnull dereferenceable(32), %"class.std::__cxx11::basic_string"* nonnull align 8 dereferenceable(32)) unnamed_addr #2

declare dso_local nonnull align 8 dereferenceable(32) %"class.std::__cxx11::basic_string"* @_ZNSt7__cxx1112basic_stringIcSt11char_traitsIcESaIcEE6appendERKS4_(%"class.std::__cxx11::basic_string"* nonnull dereferenceable(32), %"class.std::__cxx11::basic_string"* nonnull align 8 dereferenceable(32)) #1

declare dso_local nonnull align 8 dereferenceable(32) %"class.std::__cxx11::basic_string"* @_ZNSt7__cxx1112basic_stringIcSt11char_traitsIcESaIcEE6appendEPKc(%"class.std::__cxx11::basic_string"* nonnull dereferenceable(32), i8*) #1

; Function Attrs: noinline nounwind optnone uwtable mustprogress
define linkonce_odr dso_local i64 @_ZNSt11char_traitsIcE6lengthEPKc(i8* %0) #7 comdat align 2 {
  %2 = alloca i8*, align 8
  store i8* %0, i8** %2, align 8
  %3 = load i8*, i8** %2, align 8
  %4 = call i64 @strlen(i8* %3) #3
  ret i64 %4
}

; Function Attrs: noinline optnone uwtable mustprogress
define linkonce_odr dso_local void @_ZN9__gnu_cxx14__alloc_traitsISaIcEcE17_S_select_on_copyERKS1_(%"class.std::allocator"* noalias sret(%"class.std::allocator") align 1 %0, %"class.std::allocator"* nonnull align 1 dereferenceable(1) %1) #6 comdat align 2 {
  %3 = alloca i8*, align 8
  %4 = alloca %"class.std::allocator"*, align 8
  %5 = bitcast %"class.std::allocator"* %0 to i8*
  store i8* %5, i8** %3, align 8
  store %"class.std::allocator"* %1, %"class.std::allocator"** %4, align 8
  %6 = load %"class.std::allocator"*, %"class.std::allocator"** %4, align 8
  call void @_ZNSt16allocator_traitsISaIcEE37select_on_container_copy_constructionERKS0_(%"class.std::allocator"* sret(%"class.std::allocator") align 1 %0, %"class.std::allocator"* nonnull align 1 dereferenceable(1) %6)
  ret void
}

; Function Attrs: nounwind
declare dso_local void @_ZNKSt7__cxx1112basic_stringIcSt11char_traitsIcESaIcEE13get_allocatorEv(%"class.std::allocator"* sret(%"class.std::allocator") align 1, %"class.std::__cxx11::basic_string"* nonnull dereferenceable(32)) #2

; Function Attrs: nounwind
declare dso_local void @_ZNSt7__cxx1112basic_stringIcSt11char_traitsIcESaIcEEC1ERKS3_(%"class.std::__cxx11::basic_string"* nonnull dereferenceable(32), %"class.std::allocator"* nonnull align 1 dereferenceable(1)) unnamed_addr #2

; Function Attrs: nounwind
declare dso_local void @_ZNSaIcED1Ev(%"class.std::allocator"* nonnull dereferenceable(1)) unnamed_addr #2

declare dso_local void @_ZNSt7__cxx1112basic_stringIcSt11char_traitsIcESaIcEE7reserveEy(%"class.std::__cxx11::basic_string"* nonnull dereferenceable(32), i64) #1

declare dso_local nonnull align 8 dereferenceable(32) %"class.std::__cxx11::basic_string"* @_ZNSt7__cxx1112basic_stringIcSt11char_traitsIcESaIcEE6appendEPKcy(%"class.std::__cxx11::basic_string"* nonnull dereferenceable(32), i8*, i64) #1

; Function Attrs: nounwind
declare dso_local i64 @strlen(i8*) #2

; Function Attrs: noinline nounwind optnone uwtable mustprogress
define linkonce_odr dso_local void @_ZNSt16allocator_traitsISaIcEE37select_on_container_copy_constructionERKS0_(%"class.std::allocator"* noalias sret(%"class.std::allocator") align 1 %0, %"class.std::allocator"* nonnull align 1 dereferenceable(1) %1) #7 comdat align 2 {
  %3 = alloca i8*, align 8
  %4 = alloca %"class.std::allocator"*, align 8
  %5 = bitcast %"class.std::allocator"* %0 to i8*
  store i8* %5, i8** %3, align 8
  store %"class.std::allocator"* %1, %"class.std::allocator"** %4, align 8
  %6 = load %"class.std::allocator"*, %"class.std::allocator"** %4, align 8
  call void @_ZNSaIcEC1ERKS_(%"class.std::allocator"* nonnull dereferenceable(1) %0, %"class.std::allocator"* nonnull align 1 dereferenceable(1) %6) #3
  ret void
}

; Function Attrs: nounwind
declare dso_local void @_ZNSaIcEC1ERKS_(%"class.std::allocator"* nonnull dereferenceable(1), %"class.std::allocator"* nonnull align 1 dereferenceable(1)) unnamed_addr #2

; Function Attrs: noinline nounwind optnone uwtable
define linkonce_odr dso_local i32 @_ZNSt8__detail14__to_chars_lenIjEEjT_i(i32 %0, i32 %1) #5 comdat {
  %3 = alloca i32, align 4
  %4 = alloca i32, align 4
  %5 = alloca i32, align 4
  %6 = alloca i32, align 4
  %7 = alloca i32, align 4
  %8 = alloca i32, align 4
  %9 = alloca i32, align 4
  store i32 %0, i32* %4, align 4
  store i32 %1, i32* %5, align 4
  store i32 1, i32* %6, align 4
  %10 = load i32, i32* %5, align 4
  %11 = load i32, i32* %5, align 4
  %12 = mul nsw i32 %10, %11
  store i32 %12, i32* %7, align 4
  %13 = load i32, i32* %7, align 4
  %14 = load i32, i32* %5, align 4
  %15 = mul i32 %13, %14
  store i32 %15, i32* %8, align 4
  %16 = load i32, i32* %8, align 4
  %17 = load i32, i32* %5, align 4
  %18 = mul i32 %16, %17
  store i32 %18, i32* %9, align 4
  br label %19

19:                                               ; preds = %46, %2
  %20 = load i32, i32* %4, align 4
  %21 = load i32, i32* %5, align 4
  %22 = icmp ult i32 %20, %21
  br i1 %22, label %23, label %25

23:                                               ; preds = %19
  %24 = load i32, i32* %6, align 4
  store i32 %24, i32* %3, align 4
  br label %52

25:                                               ; preds = %19
  %26 = load i32, i32* %4, align 4
  %27 = load i32, i32* %7, align 4
  %28 = icmp ult i32 %26, %27
  br i1 %28, label %29, label %32

29:                                               ; preds = %25
  %30 = load i32, i32* %6, align 4
  %31 = add i32 %30, 1
  store i32 %31, i32* %3, align 4
  br label %52

32:                                               ; preds = %25
  %33 = load i32, i32* %4, align 4
  %34 = load i32, i32* %8, align 4
  %35 = icmp ult i32 %33, %34
  br i1 %35, label %36, label %39

36:                                               ; preds = %32
  %37 = load i32, i32* %6, align 4
  %38 = add i32 %37, 2
  store i32 %38, i32* %3, align 4
  br label %52

39:                                               ; preds = %32
  %40 = load i32, i32* %4, align 4
  %41 = load i32, i32* %9, align 4
  %42 = icmp ult i32 %40, %41
  br i1 %42, label %43, label %46

43:                                               ; preds = %39
  %44 = load i32, i32* %6, align 4
  %45 = add i32 %44, 3
  store i32 %45, i32* %3, align 4
  br label %52

46:                                               ; preds = %39
  %47 = load i32, i32* %9, align 4
  %48 = load i32, i32* %4, align 4
  %49 = udiv i32 %48, %47
  store i32 %49, i32* %4, align 4
  %50 = load i32, i32* %6, align 4
  %51 = add i32 %50, 4
  store i32 %51, i32* %6, align 4
  br label %19

52:                                               ; preds = %43, %36, %29, %23
  %53 = load i32, i32* %3, align 4
  ret i32 %53
}

; Function Attrs: nounwind
declare dso_local void @_ZNSaIcEC1Ev(%"class.std::allocator"* nonnull dereferenceable(1)) unnamed_addr #2

declare dso_local void @_ZNSt7__cxx1112basic_stringIcSt11char_traitsIcESaIcEEC1EycRKS3_(%"class.std::__cxx11::basic_string"* nonnull dereferenceable(32), i64, i8, %"class.std::allocator"* nonnull align 1 dereferenceable(1)) unnamed_addr #1

; Function Attrs: noinline nounwind optnone uwtable mustprogress
define linkonce_odr dso_local void @_ZNSt8__detail18__to_chars_10_implIjEEvPcjT_(i8* %0, i32 %1, i32 %2) #7 comdat {
  %4 = alloca i8*, align 8
  %5 = alloca i32, align 4
  %6 = alloca i32, align 4
  %7 = alloca i32, align 4
  %8 = alloca i32, align 4
  %9 = alloca i32, align 4
  store i8* %0, i8** %4, align 8
  store i32 %1, i32* %5, align 4
  store i32 %2, i32* %6, align 4
  %10 = load i32, i32* %5, align 4
  %11 = sub i32 %10, 1
  store i32 %11, i32* %7, align 4
  br label %12

12:                                               ; preds = %15, %3
  %13 = load i32, i32* %6, align 4
  %14 = icmp uge i32 %13, 100
  br i1 %14, label %15, label %41

15:                                               ; preds = %12
  %16 = load i32, i32* %6, align 4
  %17 = urem i32 %16, 100
  %18 = mul i32 %17, 2
  store i32 %18, i32* %8, align 4
  %19 = load i32, i32* %6, align 4
  %20 = udiv i32 %19, 100
  store i32 %20, i32* %6, align 4
  %21 = load i32, i32* %8, align 4
  %22 = add i32 %21, 1
  %23 = zext i32 %22 to i64
  %24 = getelementptr inbounds [201 x i8], [201 x i8]* @_ZZNSt8__detail18__to_chars_10_implIjEEvPcjT_E8__digits, i64 0, i64 %23
  %25 = load i8, i8* %24, align 1
  %26 = load i8*, i8** %4, align 8
  %27 = load i32, i32* %7, align 4
  %28 = zext i32 %27 to i64
  %29 = getelementptr inbounds i8, i8* %26, i64 %28
  store i8 %25, i8* %29, align 1
  %30 = load i32, i32* %8, align 4
  %31 = zext i32 %30 to i64
  %32 = getelementptr inbounds [201 x i8], [201 x i8]* @_ZZNSt8__detail18__to_chars_10_implIjEEvPcjT_E8__digits, i64 0, i64 %31
  %33 = load i8, i8* %32, align 1
  %34 = load i8*, i8** %4, align 8
  %35 = load i32, i32* %7, align 4
  %36 = sub i32 %35, 1
  %37 = zext i32 %36 to i64
  %38 = getelementptr inbounds i8, i8* %34, i64 %37
  store i8 %33, i8* %38, align 1
  %39 = load i32, i32* %7, align 4
  %40 = sub i32 %39, 2
  store i32 %40, i32* %7, align 4
  br label %12, !llvm.loop !3

41:                                               ; preds = %12
  %42 = load i32, i32* %6, align 4
  %43 = icmp uge i32 %42, 10
  br i1 %43, label %44, label %60

44:                                               ; preds = %41
  %45 = load i32, i32* %6, align 4
  %46 = mul i32 %45, 2
  store i32 %46, i32* %9, align 4
  %47 = load i32, i32* %9, align 4
  %48 = add i32 %47, 1
  %49 = zext i32 %48 to i64
  %50 = getelementptr inbounds [201 x i8], [201 x i8]* @_ZZNSt8__detail18__to_chars_10_implIjEEvPcjT_E8__digits, i64 0, i64 %49
  %51 = load i8, i8* %50, align 1
  %52 = load i8*, i8** %4, align 8
  %53 = getelementptr inbounds i8, i8* %52, i64 1
  store i8 %51, i8* %53, align 1
  %54 = load i32, i32* %9, align 4
  %55 = zext i32 %54 to i64
  %56 = getelementptr inbounds [201 x i8], [201 x i8]* @_ZZNSt8__detail18__to_chars_10_implIjEEvPcjT_E8__digits, i64 0, i64 %55
  %57 = load i8, i8* %56, align 1
  %58 = load i8*, i8** %4, align 8
  %59 = getelementptr inbounds i8, i8* %58, i64 0
  store i8 %57, i8* %59, align 1
  br label %66

60:                                               ; preds = %41
  %61 = load i32, i32* %6, align 4
  %62 = add i32 48, %61
  %63 = trunc i32 %62 to i8
  %64 = load i8*, i8** %4, align 8
  %65 = getelementptr inbounds i8, i8* %64, i64 0
  store i8 %63, i8* %65, align 1
  br label %66

66:                                               ; preds = %60, %44
  ret void
}

declare dso_local nonnull align 1 dereferenceable(1) i8* @_ZNSt7__cxx1112basic_stringIcSt11char_traitsIcESaIcEEixEy(%"class.std::__cxx11::basic_string"* nonnull dereferenceable(32), i64) #1

; Function Attrs: noinline uwtable
define internal void @_GLOBAL__sub_I_obj2.cpp() #0 {
  call void @__cxx_global_var_init()
  ret void
}

attributes #0 = { noinline uwtable "disable-tail-calls"="false" "frame-pointer"="none" "less-precise-fpmad"="false" "min-legal-vector-width"="0" "no-infs-fp-math"="false" "no-jump-tables"="false" "no-nans-fp-math"="false" "no-signed-zeros-fp-math"="false" "no-trapping-math"="true" "stack-protector-buffer-size"="8" "target-cpu"="x86-64" "target-features"="+cx8,+fxsr,+mmx,+sse,+sse2,+x87" "tune-cpu"="generic" "unsafe-fp-math"="false" "use-soft-float"="false" }
attributes #1 = { "disable-tail-calls"="false" "frame-pointer"="none" "less-precise-fpmad"="false" "no-infs-fp-math"="false" "no-nans-fp-math"="false" "no-signed-zeros-fp-math"="false" "no-trapping-math"="true" "stack-protector-buffer-size"="8" "target-cpu"="x86-64" "target-features"="+cx8,+fxsr,+mmx,+sse,+sse2,+x87" "tune-cpu"="generic" "unsafe-fp-math"="false" "use-soft-float"="false" }
attributes #2 = { nounwind "disable-tail-calls"="false" "frame-pointer"="none" "less-precise-fpmad"="false" "no-infs-fp-math"="false" "no-nans-fp-math"="false" "no-signed-zeros-fp-math"="false" "no-trapping-math"="true" "stack-protector-buffer-size"="8" "target-cpu"="x86-64" "target-features"="+cx8,+fxsr,+mmx,+sse,+sse2,+x87" "tune-cpu"="generic" "unsafe-fp-math"="false" "use-soft-float"="false" }
attributes #3 = { nounwind }
attributes #4 = { noinline norecurse optnone uwtable mustprogress "disable-tail-calls"="false" "frame-pointer"="none" "less-precise-fpmad"="false" "min-legal-vector-width"="0" "no-infs-fp-math"="false" "no-jump-tables"="false" "no-nans-fp-math"="false" "no-signed-zeros-fp-math"="false" "no-trapping-math"="true" "stack-protector-buffer-size"="8" "target-cpu"="x86-64" "target-features"="+cx8,+fxsr,+mmx,+sse,+sse2,+x87" "tune-cpu"="generic" "unsafe-fp-math"="false" "use-soft-float"="false" }
attributes #5 = { noinline nounwind optnone uwtable "disable-tail-calls"="false" "frame-pointer"="none" "less-precise-fpmad"="false" "min-legal-vector-width"="0" "no-infs-fp-math"="false" "no-jump-tables"="false" "no-nans-fp-math"="false" "no-signed-zeros-fp-math"="false" "no-trapping-math"="true" "stack-protector-buffer-size"="8" "target-cpu"="x86-64" "target-features"="+cx8,+fxsr,+mmx,+sse,+sse2,+x87" "tune-cpu"="generic" "unsafe-fp-math"="false" "use-soft-float"="false" }
attributes #6 = { noinline optnone uwtable mustprogress "disable-tail-calls"="false" "frame-pointer"="none" "less-precise-fpmad"="false" "min-legal-vector-width"="0" "no-infs-fp-math"="false" "no-jump-tables"="false" "no-nans-fp-math"="false" "no-signed-zeros-fp-math"="false" "no-trapping-math"="true" "stack-protector-buffer-size"="8" "target-cpu"="x86-64" "target-features"="+cx8,+fxsr,+mmx,+sse,+sse2,+x87" "tune-cpu"="generic" "unsafe-fp-math"="false" "use-soft-float"="false" }
attributes #7 = { noinline nounwind optnone uwtable mustprogress "disable-tail-calls"="false" "frame-pointer"="none" "less-precise-fpmad"="false" "min-legal-vector-width"="0" "no-infs-fp-math"="false" "no-jump-tables"="false" "no-nans-fp-math"="false" "no-signed-zeros-fp-math"="false" "no-trapping-math"="true" "stack-protector-buffer-size"="8" "target-cpu"="x86-64" "target-features"="+cx8,+fxsr,+mmx,+sse,+sse2,+x87" "tune-cpu"="generic" "unsafe-fp-math"="false" "use-soft-float"="false" }

!llvm.module.flags = !{!0, !1}
!llvm.ident = !{!2}

!0 = !{i32 1, !"wchar_size", i32 2}
!1 = !{i32 7, !"PIC Level", i32 2}
!2 = !{!"clang version 12.0.1"}
!3 = distinct !{!3, !4}
!4 = !{!"llvm.loop.mustprogress"}
